target datalayout = "e-m:e-p270:32:32-p271:32:32-p272:64:64-i64:64-i128:128-f80:128-n8:16:32:64-S128"
target triple = "x86_64-pc-linux-gnu"

%struct._object = type { %union.anon.41, ptr }
%union.anon.41 = type { i64 }

@_Py_NoneStruct = external global %struct._object, align 8
@PyExc_ValueError = external global ptr, align 8
@.str.25 = private unnamed_addr constant [27 x i8] c"signal number out of range\00", align 1
@.str.27 = private unnamed_addr constant [15 x i8] c"Unknown signal\00", align 1

; Function Attrs: nounwind uwtable
define internal ptr @signal_strsignal_impl(ptr noundef %0, i32 noundef %1) #0 {
  %3 = alloca ptr, align 8
  %4 = alloca ptr, align 8
  %5 = alloca i32, align 4
  %6 = alloca ptr, align 8
  %7 = alloca i32, align 4
  store ptr %0, ptr %4, align 8, !tbaa !179
  store i32 %1, ptr %5, align 4, !tbaa !4
  call void @llvm.lifetime.start.p0(i64 8, ptr %6) #10
  %8 = load i32, ptr %5, align 4, !tbaa !4
  %9 = icmp slt i32 %8, 1
  br i1 %9, label %13, label %10

10:                                               ; preds = %2
  %11 = load i32, ptr %5, align 4, !tbaa !4
  %12 = icmp sge i32 %11, 65
  br i1 %12, label %13, label %15

13:                                               ; preds = %10, %2
  %14 = load ptr, ptr @PyExc_ValueError, align 8, !tbaa !179
  call void @PyErr_SetString(ptr noundef %14, ptr noundef @.str.25)
  store ptr null, ptr %3, align 8
  store i32 1, ptr %7, align 4
  br label %33

15:                                               ; preds = %10
  %16 = call ptr @__errno_location() #11
  store i32 0, ptr %16, align 4, !tbaa !4
  %17 = load i32, ptr %5, align 4, !tbaa !4
  %18 = call ptr @strsignal(i32 noundef %17) #10
  store ptr %18, ptr %6, align 8, !tbaa !200
  %19 = call ptr @__errno_location() #11
  %20 = load i32, ptr %19, align 4, !tbaa !4
  %21 = icmp ne i32 %20, 0
  br i1 %21, label %29, label %22

22:                                               ; preds = %15
  %23 = load ptr, ptr %6, align 8, !tbaa !200
  %24 = icmp eq ptr %23, null
  br i1 %24, label %29, label %25

25:                                               ; preds = %22
  %26 = load ptr, ptr %6, align 8, !tbaa !200
  %27 = call ptr @strstr(ptr noundef %26, ptr noundef @.str.27) #13
  %28 = icmp ne ptr %27, null
  br i1 %28, label %29, label %30

29:                                               ; preds = %25, %22, %15
  store ptr @_Py_NoneStruct, ptr %3, align 8
  store i32 1, ptr %7, align 4
  br label %33

30:                                               ; preds = %25
  %31 = load ptr, ptr %6, align 8, !tbaa !200
  %32 = call ptr @PyUnicode_FromString(ptr noundef %31)
  store ptr %32, ptr %3, align 8
  store i32 1, ptr %7, align 4
  br label %33

33:                                               ; preds = %30, %29, %13
  call void @llvm.lifetime.end.p0(i64 8, ptr %6) #10
  %34 = load ptr, ptr %3, align 8
  ret ptr %34
}

; Function Attrs: nounwind uwtable
define internal ptr @signal_strsignal(ptr noundef %0, ptr noundef %1) #0 {
  %3 = alloca ptr, align 8
  %4 = alloca ptr, align 8
  %5 = alloca ptr, align 8
  %6 = alloca i32, align 4
  store ptr %0, ptr %3, align 8, !tbaa !179
  store ptr %1, ptr %4, align 8, !tbaa !179
  call void @llvm.lifetime.start.p0(i64 8, ptr %5) #10
  store ptr null, ptr %5, align 8, !tbaa !179
  call void @llvm.lifetime.start.p0(i64 4, ptr %6) #10
  %7 = load ptr, ptr %4, align 8, !tbaa !179
  %8 = call i32 @PyLong_AsInt(ptr noundef %7)
  store i32 %8, ptr %6, align 4, !tbaa !4
  %9 = load i32, ptr %6, align 4, !tbaa !4
  %10 = icmp eq i32 %9, -1
  br i1 %10, label %11, label %15

11:                                               ; preds = %2
  %12 = call ptr @PyErr_Occurred()
  %13 = icmp ne ptr %12, null
  br i1 %13, label %14, label %15

14:                                               ; preds = %11
  br label %19

15:                                               ; preds = %11, %2
  %16 = load ptr, ptr %3, align 8, !tbaa !179
  %17 = load i32, ptr %6, align 4, !tbaa !4
  %18 = call ptr @signal_strsignal_impl(ptr noundef %16, i32 noundef %17)
  store ptr %18, ptr %5, align 8, !tbaa !179
  br label %19

19:                                               ; preds = %15, %14
  %20 = load ptr, ptr %5, align 8, !tbaa !179
  call void @llvm.lifetime.end.p0(i64 4, ptr %6) #10
  call void @llvm.lifetime.end.p0(i64 8, ptr %5) #10
  ret ptr %20
}