; Function Attrs: nounwind uwtable
define internal ptr @signal_strsignal(ptr readnone captures(none) %0, ptr noundef %1) #2 {
  %3 = tail call i32 @PyLong_AsInt(ptr noundef %1) #15
  %4 = icmp eq i32 %3, -1
  br i1 %4, label %18, label %.split

.split:                                           ; preds = %2
  %5 = add i32 %3, -65
  %or.cond.i = icmp ult i32 %5, -64
  br i1 %or.cond.i, label %6, label %8

6:                                                ; preds = %.split
  %7 = load ptr, ptr @PyExc_ValueError, align 8, !tbaa !176
  tail call void @PyErr_SetString(ptr noundef %7, ptr noundef nonnull @.str.25) #15
  br label %signal_strsignal_impl.exit

8:                                                ; preds = %.split
  %9 = tail call ptr @__errno_location() #16
  store i32 0, ptr %9, align 4, !tbaa !199
  %10 = tail call ptr @strsignal(i32 noundef %3) #15
  %11 = load i32, ptr %9, align 4, !tbaa !199
  %12 = icmp ne i32 %11, 0
  %13 = icmp eq ptr %10, null
  %or.cond3.i = select i1 %12, i1 true, i1 %13
  br i1 %or.cond3.i, label %signal_strsignal_impl.exit, label %14

14:                                               ; preds = %8
  %15 = tail call ptr @strstr(ptr noundef nonnull dereferenceable(1) %10, ptr noundef nonnull dereferenceable(1) @.str.27) #18
  %.not.i = icmp eq ptr %15, null
  br i1 %.not.i, label %16, label %signal_strsignal_impl.exit

16:                                               ; preds = %14
  %17 = tail call ptr @PyUnicode_FromString(ptr noundef nonnull %10) #15
  br label %signal_strsignal_impl.exit

18:                                               ; preds = %2
  %19 = tail call ptr @PyErr_Occurred() #15
  %.not = icmp eq ptr %19, null
  br i1 %.not, label %.split4, label %signal_strsignal_impl.exit

.split4:                                          ; preds = %18
  %20 = load ptr, ptr @PyExc_ValueError, align 8, !tbaa !176
  tail call void @PyErr_SetString(ptr noundef %20, ptr noundef nonnull @.str.25) #15
  br label %signal_strsignal_impl.exit

signal_strsignal_impl.exit:                       ; preds = %16, %14, %8, %6, %.split4, %18
  %.0 = phi ptr [ null, %18 ], [ null, %.split4 ], [ null, %6 ], [ %17, %16 ], [ @_Py_NoneStruct, %14 ], [ @_Py_NoneStruct, %8 ]
  ret ptr %.0
}